; ModuleID = '11/49.c'
source_filename = "11/49.c"
target datalayout = "e-m:e-p270:32:32-p271:32:32-p272:64:64-i64:64-f80:128-n8:16:32:64-S128"
target triple = "x86_64-pc-linux-gnu"

@__const.main.a = private unnamed_addr constant [12 x i32] [i32 31, i32 28, i32 31, i32 30, i32 31, i32 30, i32 31, i32 31, i32 30, i32 31, i32 30, i32 31], align 16
@.str = private unnamed_addr constant [7 x i8] c"%d%d%d\00", align 1
@.str.1 = private unnamed_addr constant [3 x i8] c"%d\00", align 1

; Function Attrs: noinline nounwind uwtable
define dso_local i32 @main() #0 {
  %1 = alloca i32, align 4
  %2 = alloca [12 x i32], align 16
  %3 = alloca i32, align 4
  %4 = alloca i32, align 4
  %5 = alloca i32, align 4
  %6 = alloca i32, align 4
  %7 = alloca i32, align 4
  store i32 0, i32* %1, align 4
  %8 = bitcast [12 x i32]* %2 to i8*
  call void @llvm.memcpy.p0i8.p0i8.i64(i8* align 16 %8, i8* align 16 bitcast ([12 x i32]* @__const.main.a to i8*), i64 48, i1 false)
  %9 = call i32 (i8*, ...) @__isoc99_scanf(i8* getelementptr inbounds ([7 x i8], [7 x i8]* @.str, i64 0, i64 0), i32* %3, i32* %4, i32* %5)
  %10 = load i32, i32* %3, align 4
  %11 = srem i32 %10, 4
  %12 = icmp eq i32 %11, 0
  br i1 %12, label %13, label %41

13:                                               ; preds = %0
  %14 = load i32, i32* %3, align 4
  %15 = srem i32 %14, 100
  %16 = icmp ne i32 %15, 0
  br i1 %16, label %17, label %19

17:                                               ; preds = %13
  %18 = getelementptr inbounds [12 x i32], [12 x i32]* %2, i64 0, i64 1
  store i32 29, i32* %18, align 4
  br label %30

19:                                               ; preds = %13
  %20 = load i32, i32* %3, align 4
  %21 = srem i32 %20, 100
  %22 = icmp eq i32 %21, 0
  br i1 %22, label %23, label %29

23:                                               ; preds = %19
  %24 = load i32, i32* %3, align 4
  %25 = srem i32 %24, 400
  %26 = icmp eq i32 %25, 0
  br i1 %26, label %27, label %29

27:                                               ; preds = %23
  %28 = getelementptr inbounds [12 x i32], [12 x i32]* %2, i64 0, i64 1
  store i32 29, i32* %28, align 4
  br label %29

29:                                               ; preds = %27, %23, %19
  br label %30

30:                                               ; preds = %29, %17
  %31 = load i32, i32* %3, align 4
  %32 = srem i32 %31, 100
  %33 = icmp eq i32 %32, 0
  br i1 %33, label %34, label %40

34:                                               ; preds = %30
  %35 = load i32, i32* %3, align 4
  %36 = srem i32 %35, 400
  %37 = icmp ne i32 %36, 0
  br i1 %37, label %38, label %40

38:                                               ; preds = %34
  %39 = getelementptr inbounds [12 x i32], [12 x i32]* %2, i64 0, i64 1
  store i32 28, i32* %39, align 4
  br label %40

40:                                               ; preds = %38, %34, %30
  br label %41

41:                                               ; preds = %40, %0
  store i32 0, i32* %6, align 4
  store i32 0, i32* %7, align 4
  br label %42

42:                                               ; preds = %54, %41
  %43 = load i32, i32* %7, align 4
  %44 = load i32, i32* %4, align 4
  %45 = sub nsw i32 %44, 1
  %46 = icmp slt i32 %43, %45
  br i1 %46, label %47, label %57

47:                                               ; preds = %42
  %48 = load i32, i32* %6, align 4
  %49 = load i32, i32* %7, align 4
  %50 = sext i32 %49 to i64
  %51 = getelementptr inbounds [12 x i32], [12 x i32]* %2, i64 0, i64 %50
  %52 = load i32, i32* %51, align 4
  %53 = add nsw i32 %48, %52
  store i32 %53, i32* %6, align 4
  br label %54

54:                                               ; preds = %47
  %55 = load i32, i32* %7, align 4
  %56 = add nsw i32 %55, 1
  store i32 %56, i32* %7, align 4
  br label %42

57:                                               ; preds = %42
  %58 = load i32, i32* %6, align 4
  %59 = load i32, i32* %5, align 4
  %60 = add nsw i32 %58, %59
  store i32 %60, i32* %6, align 4
  %61 = load i32, i32* %6, align 4
  %62 = call i32 (i8*, ...) @printf(i8* getelementptr inbounds ([3 x i8], [3 x i8]* @.str.1, i64 0, i64 0), i32 %61)
  ret i32 0
}

; Function Attrs: argmemonly nounwind willreturn
declare void @llvm.memcpy.p0i8.p0i8.i64(i8* noalias nocapture writeonly, i8* noalias nocapture readonly, i64, i1 immarg) #1

declare dso_local i32 @__isoc99_scanf(i8*, ...) #2

declare dso_local i32 @printf(i8*, ...) #2


!llvm.module.flags = !{!0}
!llvm.ident = !{!1}

!0 = !{i32 1, !"wchar_size", i32 4}
!1 = !{!"clang version 10.0.0-4ubuntu1 "}
